; Function Attrs: mustprogress nounwind uwtable
define hidden noundef nonnull align 8 dereferenceable(96) ptr @_ZNK13SafePointNode10in_RegMaskEj(ptr nocapture noundef nonnull readonly align 8 dereferenceable(81) %0, i32 noundef %1) unnamed_addr #2 align 2 {
  %3 = icmp ult i32 %1, 5
  br i1 %3, label %26, label %4

4:                                                ; preds = %2
  %5 = tail call align 8 ptr @llvm.threadlocal.address.p0(ptr align 8 @_ZN6Thread12_thr_currentE)
  %6 = load ptr, ptr %5, align 8
  %7 = getelementptr inbounds i8, ptr %6, i64 1808
  %8 = load ptr, ptr %7, align 8
  %9 = getelementptr inbounds i8, ptr %8, i64 128
  %10 = load ptr, ptr %9, align 8
  %11 = getelementptr inbounds i8, ptr %10, i64 2152
  %12 = load ptr, ptr %11, align 8
  %13 = getelementptr inbounds i8, ptr %12, i64 456
  %14 = getelementptr inbounds i8, ptr %0, i64 8
  %15 = load ptr, ptr %14, align 8
  %16 = zext i32 %1 to i64
  %17 = getelementptr inbounds ptr, ptr %15, i64 %16
  %18 = load ptr, ptr %17, align 8
  %19 = load ptr, ptr %18, align 8
  %20 = getelementptr inbounds i8, ptr %19, i64 112
  %21 = load ptr, ptr %20, align 8
  %22 = tail call noundef i32 %21(ptr noundef nonnull align 8 dereferenceable(52) %18) #15
  %23 = zext i32 %22 to i64
  %24 = getelementptr inbounds [16 x ptr], ptr %13, i64 0, i64 %23
  %25 = load ptr, ptr %24, align 8
  br label %26

26:                                               ; preds = %2, %4
  %.0 = phi ptr [ %25, %4 ], [ @_ZN7RegMask5EmptyE, %2 ]
  ret ptr %.0
}